target datalayout = "e-m:e-p270:32:32-p271:32:32-p272:64:64-i64:64-i128:128-f80:128-n8:16:32:64-S128"
target triple = "x86_64-pc-linux-gnu"

%"struct.cv::MatSize" = type { ptr }
%"struct.cv::MatStep" = type { ptr, [2 x i64] }
%"struct.cv::detail::MatchesInfo" = type { i32, i32, %"class.std::vector.18", %"class.std::vector.23", i32, %"class.cv::Mat", double }
%"class.std::vector.18" = type { %"struct.std::_Vector_base.19" }
%"struct.std::_Vector_base.19" = type { %"struct.std::_Vector_base<cv::DMatch, std::allocator<cv::DMatch>>::_Vector_impl" }
%"struct.std::_Vector_base<cv::DMatch, std::allocator<cv::DMatch>>::_Vector_impl" = type { %"struct.std::_Vector_base<cv::DMatch, std::allocator<cv::DMatch>>::_Vector_impl_data" }
%"struct.std::_Vector_base<cv::DMatch, std::allocator<cv::DMatch>>::_Vector_impl_data" = type { ptr, ptr, ptr }
%"class.std::vector.23" = type { %"struct.std::_Vector_base.24" }
%"struct.std::_Vector_base.24" = type { %"struct.std::_Vector_base<unsigned char, std::allocator<unsigned char>>::_Vector_impl" }
%"struct.std::_Vector_base<unsigned char, std::allocator<unsigned char>>::_Vector_impl" = type { %"struct.std::_Vector_base<unsigned char, std::allocator<unsigned char>>::_Vector_impl_data" }
%"struct.std::_Vector_base<unsigned char, std::allocator<unsigned char>>::_Vector_impl_data" = type { ptr, ptr, ptr }
%"class.cv::Mat" = type { i32, i32, i32, i32, ptr, ptr, ptr, ptr, ptr, ptr, %"struct.cv::MatSize", %"struct.cv::MatStep" }

; Function Attrs: mustprogress uwtable
define noundef nonnull align 8 dereferenceable(168) ptr @_ZN2cv6detail11MatchesInfoaSERKS1_(ptr noundef nonnull align 8 dereferenceable(168) %0, ptr noundef nonnull align 8 dereferenceable(168) %1) #4 align 2 personality ptr @__gxx_personality_v0 {
  %3 = alloca ptr, align 8
  %4 = alloca ptr, align 8
  %5 = alloca %"class.cv::Mat", align 8
  %6 = alloca ptr, align 8
  %7 = alloca i32, align 4
  store ptr %0, ptr %3, align 8, !tbaa !49
  store ptr %1, ptr %4, align 8, !tbaa !49
  %8 = load ptr, ptr %3, align 8
  %9 = load ptr, ptr %4, align 8, !tbaa !49
  %10 = getelementptr inbounds nuw %"struct.cv::detail::MatchesInfo", ptr %9, i32 0, i32 0
  %11 = load i32, ptr %10, align 8, !tbaa !51
  %12 = getelementptr inbounds nuw %"struct.cv::detail::MatchesInfo", ptr %8, i32 0, i32 0
  store i32 %11, ptr %12, align 8, !tbaa !51
  %13 = load ptr, ptr %4, align 8, !tbaa !49
  %14 = getelementptr inbounds nuw %"struct.cv::detail::MatchesInfo", ptr %13, i32 0, i32 1
  %15 = load i32, ptr %14, align 4, !tbaa !70
  %16 = getelementptr inbounds nuw %"struct.cv::detail::MatchesInfo", ptr %8, i32 0, i32 1
  store i32 %15, ptr %16, align 4, !tbaa !70
  %17 = load ptr, ptr %4, align 8, !tbaa !49
  %18 = getelementptr inbounds nuw %"struct.cv::detail::MatchesInfo", ptr %17, i32 0, i32 2
  %19 = getelementptr inbounds nuw %"struct.cv::detail::MatchesInfo", ptr %8, i32 0, i32 2
  %20 = call noundef nonnull align 8 dereferenceable(24) ptr @_ZNSt6vectorIN2cv6DMatchESaIS1_EEaSERKS3_(ptr noundef nonnull align 8 dereferenceable(24) %19, ptr noundef nonnull align 8 dereferenceable(24) %18)
  %21 = load ptr, ptr %4, align 8, !tbaa !49
  %22 = getelementptr inbounds nuw %"struct.cv::detail::MatchesInfo", ptr %21, i32 0, i32 3
  %23 = getelementptr inbounds nuw %"struct.cv::detail::MatchesInfo", ptr %8, i32 0, i32 3
  %24 = call noundef nonnull align 8 dereferenceable(24) ptr @_ZNSt6vectorIhSaIhEEaSERKS1_(ptr noundef nonnull align 8 dereferenceable(24) %23, ptr noundef nonnull align 8 dereferenceable(24) %22)
  %25 = load ptr, ptr %4, align 8, !tbaa !49
  %26 = getelementptr inbounds nuw %"struct.cv::detail::MatchesInfo", ptr %25, i32 0, i32 4
  %27 = load i32, ptr %26, align 8, !tbaa !71
  %28 = getelementptr inbounds nuw %"struct.cv::detail::MatchesInfo", ptr %8, i32 0, i32 4
  store i32 %27, ptr %28, align 8, !tbaa !71
  call void @llvm.lifetime.start.p0(i64 96, ptr %5) #3
  %29 = load ptr, ptr %4, align 8, !tbaa !49
  %30 = getelementptr inbounds nuw %"struct.cv::detail::MatchesInfo", ptr %29, i32 0, i32 5
  call void @_ZNK2cv3Mat5cloneEv(ptr dead_on_unwind writable sret(%"class.cv::Mat") align 8 %5, ptr noundef nonnull align 8 dereferenceable(96) %30)
  %31 = getelementptr inbounds nuw %"struct.cv::detail::MatchesInfo", ptr %8, i32 0, i32 5
  %32 = invoke noundef nonnull align 8 dereferenceable(96) ptr @_ZN2cv3MataSEOS0_(ptr noundef nonnull align 8 dereferenceable(96) %31, ptr noundef nonnull align 8 dereferenceable(96) %5)
          to label %33 unwind label %38

33:                                               ; preds = %2
  call void @_ZN2cv3MatD1Ev(ptr noundef nonnull align 8 dereferenceable(96) %5) #3
  call void @llvm.lifetime.end.p0(i64 96, ptr %5) #3
  %34 = load ptr, ptr %4, align 8, !tbaa !49
  %35 = getelementptr inbounds nuw %"struct.cv::detail::MatchesInfo", ptr %34, i32 0, i32 6
  %36 = load double, ptr %35, align 8, !tbaa !72
  %37 = getelementptr inbounds nuw %"struct.cv::detail::MatchesInfo", ptr %8, i32 0, i32 6
  store double %36, ptr %37, align 8, !tbaa !72
  ret ptr %8

38:                                               ; preds = %2
  %39 = landingpad { ptr, i32 }
          cleanup
  %40 = extractvalue { ptr, i32 } %39, 0
  store ptr %40, ptr %6, align 8
  %41 = extractvalue { ptr, i32 } %39, 1
  store i32 %41, ptr %7, align 4
  call void @_ZN2cv3MatD1Ev(ptr noundef nonnull align 8 dereferenceable(96) %5) #3
  call void @llvm.lifetime.end.p0(i64 96, ptr %5) #3
  br label %42

42:                                               ; preds = %38
  %43 = load ptr, ptr %6, align 8
  %44 = load i32, ptr %7, align 4
  %45 = insertvalue { ptr, i32 } poison, ptr %43, 0
  %46 = insertvalue { ptr, i32 } %45, i32 %44, 1
  resume { ptr, i32 } %46
}