; Function Attrs: mustprogress uwtable
define noundef nonnull align 8 dereferenceable(168) ptr @_ZN2cv6detail11MatchesInfoaSERKS1_(ptr noundef nonnull returned align 8 dereferenceable(168) initializes((0, 8)) %0, ptr noundef nonnull align 8 dereferenceable(168) %1) local_unnamed_addr #3 align 2 personality ptr @__gxx_personality_v0 {
  %3 = alloca %"class.cv::Mat", align 8
  %4 = load i32, ptr %1, align 8, !tbaa !46
  store i32 %4, ptr %0, align 8, !tbaa !46
  %5 = getelementptr inbounds nuw i8, ptr %1, i64 4
  %6 = load i32, ptr %5, align 4, !tbaa !65
  %7 = getelementptr inbounds nuw i8, ptr %0, i64 4
  store i32 %6, ptr %7, align 4, !tbaa !65
  %8 = getelementptr inbounds nuw i8, ptr %1, i64 8
  %9 = getelementptr inbounds nuw i8, ptr %0, i64 8
  %10 = tail call noundef nonnull align 8 dereferenceable(24) ptr @_ZNSt6vectorIN2cv6DMatchESaIS1_EEaSERKS3_(ptr noundef nonnull align 8 dereferenceable(24) %9, ptr noundef nonnull align 8 dereferenceable(24) %8)
  %11 = getelementptr inbounds nuw i8, ptr %1, i64 32
  %12 = getelementptr inbounds nuw i8, ptr %0, i64 32
  %13 = tail call noundef nonnull align 8 dereferenceable(24) ptr @_ZNSt6vectorIhSaIhEEaSERKS1_(ptr noundef nonnull align 8 dereferenceable(24) %12, ptr noundef nonnull align 8 dereferenceable(24) %11)
  %14 = getelementptr inbounds nuw i8, ptr %1, i64 56
  %15 = load i32, ptr %14, align 8, !tbaa !67
  %16 = getelementptr inbounds nuw i8, ptr %0, i64 56
  store i32 %15, ptr %16, align 8, !tbaa !67
  call void @llvm.lifetime.start.p0(i64 96, ptr nonnull %3) #26
  %17 = getelementptr inbounds nuw i8, ptr %1, i64 64
  call void @_ZNK2cv3Mat5cloneEv(ptr dead_on_unwind nonnull writable sret(%"class.cv::Mat") align 8 %3, ptr noundef nonnull align 8 dereferenceable(96) %17)
  %18 = getelementptr inbounds nuw i8, ptr %0, i64 64
  %19 = invoke noundef nonnull align 8 dereferenceable(96) ptr @_ZN2cv3MataSEOS0_(ptr noundef nonnull align 8 dereferenceable(96) %18, ptr noundef nonnull align 8 dereferenceable(96) %3)
          to label %20 unwind label %24

20:                                               ; preds = %2
  call void @_ZN2cv3MatD1Ev(ptr noundef nonnull align 8 dereferenceable(96) %3) #26
  call void @llvm.lifetime.end.p0(i64 96, ptr nonnull %3) #26
  %21 = getelementptr inbounds nuw i8, ptr %1, i64 160
  %22 = load double, ptr %21, align 8, !tbaa !66
  %23 = getelementptr inbounds nuw i8, ptr %0, i64 160
  store double %22, ptr %23, align 8, !tbaa !66
  ret ptr %0

24:                                               ; preds = %2
  %25 = landingpad { ptr, i32 }
          cleanup
  call void @_ZN2cv3MatD1Ev(ptr noundef nonnull align 8 dereferenceable(96) %3) #26
  call void @llvm.lifetime.end.p0(i64 96, ptr nonnull %3) #26
  resume { ptr, i32 } %25
}